target datalayout = "e-m:e-p270:32:32-p271:32:32-p272:64:64-i64:64-i128:128-f80:128-n8:16:32:64-S128"
target triple = "x86_64-pc-linux-gnu"

%struct.nghttp2_nv = type { ptr, ptr, i64, i64, i8 }
%struct.nghttp2_frame_hd = type { i64, i32, i8, i8, i8 }
%struct.nghttp2_headers = type { %struct.nghttp2_frame_hd, i64, %struct.nghttp2_priority_spec, ptr, i64, i32 }
%struct.nghttp2_priority_spec = type { i32, i32, i8 }

@.str.24 = private unnamed_addr constant [52 x i8] c"[INFO] C ----------------------------> S (HEADERS)\0A\00", align 1
@stdout = external global ptr, align 8
@.str.25 = private unnamed_addr constant [3 x i8] c": \00", align 1
@.str.26 = private unnamed_addr constant [2 x i8] c"\0A\00", align 1
@.str.27 = private unnamed_addr constant [55 x i8] c"[INFO] C ----------------------------> S (RST_STREAM)\0A\00", align 1
@.str.28 = private unnamed_addr constant [51 x i8] c"[INFO] C ----------------------------> S (GOAWAY)\0A\00", align 1

; Function Attrs: nounwind uwtable
define internal i32 @on_frame_send_callback(ptr noundef %0, ptr noundef %1, ptr noundef %2) #0 {
  %4 = alloca ptr, align 8
  %5 = alloca ptr, align 8
  %6 = alloca ptr, align 8
  %7 = alloca i64, align 8
  %8 = alloca ptr, align 8
  store ptr %0, ptr %4, align 8, !tbaa !84
  store ptr %1, ptr %5, align 8, !tbaa !85
  store ptr %2, ptr %6, align 8, !tbaa !85
  call void @llvm.lifetime.start.p0(i64 8, ptr %7) #11
  %9 = load ptr, ptr %5, align 8, !tbaa !85
  %10 = getelementptr inbounds nuw %struct.nghttp2_frame_hd, ptr %9, i32 0, i32 2
  %11 = load i8, ptr %10, align 4, !tbaa !12
  %12 = zext i8 %11 to i32
  switch i32 %12, label %67 [
    i32 1, label %13
    i32 3, label %63
    i32 7, label %65
  ]

13:                                               ; preds = %3
  %14 = load ptr, ptr %4, align 8, !tbaa !84
  %15 = load ptr, ptr %5, align 8, !tbaa !85
  %16 = getelementptr inbounds nuw %struct.nghttp2_frame_hd, ptr %15, i32 0, i32 1
  %17 = load i32, ptr %16, align 8, !tbaa !12
  %18 = call ptr @nghttp2_session_get_stream_user_data(ptr noundef %14, i32 noundef %17)
  %19 = icmp ne ptr %18, null
  br i1 %19, label %20, label %62

20:                                               ; preds = %13
  call void @llvm.lifetime.start.p0(i64 8, ptr %8) #11
  %21 = load ptr, ptr %5, align 8, !tbaa !85
  %22 = getelementptr inbounds nuw %struct.nghttp2_headers, ptr %21, i32 0, i32 3
  %23 = load ptr, ptr %22, align 8, !tbaa !12
  store ptr %23, ptr %8, align 8, !tbaa !85
  %24 = call i32 (ptr, ...) @printf(ptr noundef @.str.24)
  store i64 0, ptr %7, align 8, !tbaa !19
  br label %25

25:                                               ; preds = %58, %20
  %26 = load i64, ptr %7, align 8, !tbaa !19
  %27 = load ptr, ptr %5, align 8, !tbaa !85
  %28 = getelementptr inbounds nuw %struct.nghttp2_headers, ptr %27, i32 0, i32 4
  %29 = load i64, ptr %28, align 8, !tbaa !12
  %30 = icmp ult i64 %26, %29
  br i1 %30, label %31, label %61

31:                                               ; preds = %25
  %32 = load ptr, ptr %8, align 8, !tbaa !85
  %33 = load i64, ptr %7, align 8, !tbaa !19
  %34 = getelementptr inbounds nuw %struct.nghttp2_nv, ptr %32, i64 %33
  %35 = getelementptr inbounds nuw %struct.nghttp2_nv, ptr %34, i32 0, i32 0
  %36 = load ptr, ptr %35, align 8, !tbaa !75
  %37 = load ptr, ptr %8, align 8, !tbaa !85
  %38 = load i64, ptr %7, align 8, !tbaa !19
  %39 = getelementptr inbounds nuw %struct.nghttp2_nv, ptr %37, i64 %38
  %40 = getelementptr inbounds nuw %struct.nghttp2_nv, ptr %39, i32 0, i32 2
  %41 = load i64, ptr %40, align 8, !tbaa !78
  %42 = load ptr, ptr @stdout, align 8, !tbaa !15
  %43 = call i64 @fwrite(ptr noundef %36, i64 noundef 1, i64 noundef %41, ptr noundef %42)
  %44 = call i32 (ptr, ...) @printf(ptr noundef @.str.25)
  %45 = load ptr, ptr %8, align 8, !tbaa !85
  %46 = load i64, ptr %7, align 8, !tbaa !19
  %47 = getelementptr inbounds nuw %struct.nghttp2_nv, ptr %45, i64 %46
  %48 = getelementptr inbounds nuw %struct.nghttp2_nv, ptr %47, i32 0, i32 1
  %49 = load ptr, ptr %48, align 8, !tbaa !77
  %50 = load ptr, ptr %8, align 8, !tbaa !85
  %51 = load i64, ptr %7, align 8, !tbaa !19
  %52 = getelementptr inbounds nuw %struct.nghttp2_nv, ptr %50, i64 %51
  %53 = getelementptr inbounds nuw %struct.nghttp2_nv, ptr %52, i32 0, i32 3
  %54 = load i64, ptr %53, align 8, !tbaa !79
  %55 = load ptr, ptr @stdout, align 8, !tbaa !15
  %56 = call i64 @fwrite(ptr noundef %49, i64 noundef 1, i64 noundef %54, ptr noundef %55)
  %57 = call i32 (ptr, ...) @printf(ptr noundef @.str.26)
  br label %58

58:                                               ; preds = %31
  %59 = load i64, ptr %7, align 8, !tbaa !19
  %60 = add i64 %59, 1
  store i64 %60, ptr %7, align 8, !tbaa !19
  br label %25, !llvm.loop !86

61:                                               ; preds = %25
  call void @llvm.lifetime.end.p0(i64 8, ptr %8) #11
  br label %62

62:                                               ; preds = %61, %13
  br label %67

63:                                               ; preds = %3
  %64 = call i32 (ptr, ...) @printf(ptr noundef @.str.27)
  br label %67

65:                                               ; preds = %3
  %66 = call i32 (ptr, ...) @printf(ptr noundef @.str.28)
  br label %67

67:                                               ; preds = %3, %65, %63, %62
  call void @llvm.lifetime.end.p0(i64 8, ptr %7) #11
  ret i32 0
}