; Function Attrs: nounwind uwtable
define internal noundef i32 @on_frame_send_callback(ptr noundef %0, ptr noundef readonly captures(none) %1, ptr readnone captures(none) %2) #0 {
  %4 = getelementptr inbounds nuw i8, ptr %1, i64 12
  %5 = load i8, ptr %4, align 4, !tbaa !4
  switch i8 %5, label %.loopexit [
    i8 1, label %6
    i8 3, label %.loopexit.sink.split
    i8 7, label %31
  ]

6:                                                ; preds = %3
  %7 = getelementptr inbounds nuw i8, ptr %1, i64 8
  %8 = load i32, ptr %7, align 8, !tbaa !4
  %9 = tail call ptr @nghttp2_session_get_stream_user_data(ptr noundef %0, i32 noundef %8) #16
  %.not = icmp eq ptr %9, null
  br i1 %.not, label %.loopexit, label %10

10:                                               ; preds = %6
  %11 = getelementptr inbounds nuw i8, ptr %1, i64 40
  %12 = load ptr, ptr %11, align 8, !tbaa !4
  %puts15 = tail call i32 @puts(ptr nonnull dereferenceable(1) @str.3)
  %13 = getelementptr inbounds nuw i8, ptr %1, i64 48
  %14 = load i64, ptr %13, align 8, !tbaa !4
  %.not17 = icmp eq i64 %14, 0
  br i1 %.not17, label %.loopexit, label %.lr.ph

.lr.ph:                                           ; preds = %10, %.lr.ph
  %.016 = phi i64 [ %28, %.lr.ph ], [ 0, %10 ]
  %15 = getelementptr inbounds nuw %struct.nghttp2_nv, ptr %12, i64 %.016
  %16 = load ptr, ptr %15, align 8, !tbaa !45
  %17 = getelementptr inbounds nuw i8, ptr %15, i64 16
  %18 = load i64, ptr %17, align 8, !tbaa !49
  %19 = load ptr, ptr @stdout, align 8, !tbaa !56
  %20 = tail call i64 @fwrite(ptr noundef %16, i64 noundef 1, i64 noundef %18, ptr noundef %19)
  %21 = tail call i32 (ptr, ...) @printf(ptr noundef nonnull dereferenceable(1) @.str.25)
  %22 = getelementptr inbounds nuw i8, ptr %15, i64 8
  %23 = load ptr, ptr %22, align 8, !tbaa !48
  %24 = getelementptr inbounds nuw i8, ptr %15, i64 24
  %25 = load i64, ptr %24, align 8, !tbaa !50
  %26 = load ptr, ptr @stdout, align 8, !tbaa !56
  %27 = tail call i64 @fwrite(ptr noundef %23, i64 noundef 1, i64 noundef %25, ptr noundef %26)
  %putchar = tail call i32 @putchar(i32 10)
  %28 = add nuw i64 %.016, 1
  %29 = load i64, ptr %13, align 8, !tbaa !4
  %30 = icmp ult i64 %28, %29
  br i1 %30, label %.lr.ph, label %.loopexit, !llvm.loop !58

31:                                               ; preds = %3
  br label %.loopexit.sink.split

.loopexit.sink.split:                             ; preds = %3, %31
  %str.1.sink = phi ptr [ @str.1, %31 ], [ @str.2, %3 ]
  %puts = tail call i32 @puts(ptr nonnull dereferenceable(1) %str.1.sink)
  br label %.loopexit

.loopexit:                                        ; preds = %.lr.ph, %.loopexit.sink.split, %10, %6, %3
  ret i32 0
}